target datalayout = "e-m:e-p270:32:32-p271:32:32-p272:64:64-i64:64-i128:128-f80:128-n8:16:32:64-S128"
target triple = "x86_64-pc-linux-gnu"

%struct.Abc_Frame_t_ = type { ptr, ptr, ptr, ptr, ptr, ptr, ptr, ptr, ptr, ptr, i32, i32, i32, i32, i32, ptr, float, float, i32, i32, ptr, ptr, ptr, double, double, ptr, ptr, ptr, ptr, ptr, ptr, ptr, ptr, ptr, ptr, ptr, ptr, float, ptr, i32, ptr, ptr, ptr, ptr, ptr, i32, i32, i32, i32, i32, i32, ptr, ptr, ptr, ptr, ptr, ptr, i32, i32, ptr, ptr, ptr, ptr, ptr, ptr, ptr, ptr, ptr, ptr, ptr, ptr, ptr, ptr, ptr, ptr, ptr, ptr, ptr, ptr, ptr, ptr, ptr, ptr, ptr, ptr, ptr, ptr, ptr, ptr }

@globalUtilOptind = external global i32, align 4
@.str.142 = private unnamed_addr constant [16 x i8] c"Empty network.\0A\00", align 1
@.str.233 = private unnamed_addr constant [34 x i8] c"\09-h     : print the help massage\0A\00", align 1
@.str.346 = private unnamed_addr constant [3 x i8] c"Nh\00", align 1
@.str.347 = private unnamed_addr constant [35 x i8] c"usage: write_edgelist [-N] <file>\0A\00", align 1
@.str.348 = private unnamed_addr constant [49 x i8] c"\09         writes the network into edgelist file\0A\00", align 1
@.str.349 = private unnamed_addr constant [109 x i8] c"\09         part of Verilog-2-PyG (PyTorch Geometric). more details https://github.com/ycunxi/Verilog-to-PyG \0A\00", align 1
@.str.350 = private unnamed_addr constant [85 x i8] c"\09-N     : toggle keeping original naming of the netlist in edgelist (default=False)\0A\00", align 1
@.str.351 = private unnamed_addr constant [57 x i8] c"\09file   : the name of the file to write (extension .el)\0A\00", align 1

; Function Attrs: nounwind uwtable
define internal i32 @IoCommandWriteEdgelist(ptr noundef %0, i32 noundef %1, ptr noundef %2) #0 {
  %4 = alloca i32, align 4
  %5 = alloca ptr, align 8
  %6 = alloca i32, align 4
  %7 = alloca ptr, align 8
  %8 = alloca ptr, align 8
  %9 = alloca i32, align 4
  %10 = alloca i32, align 4
  %11 = alloca i32, align 4
  store ptr %0, ptr %5, align 8, !tbaa !3
  store i32 %1, ptr %6, align 4, !tbaa !8
  store ptr %2, ptr %7, align 8, !tbaa !10
  call void @llvm.lifetime.start.p0(i64 8, ptr %8) #11
  call void @llvm.lifetime.start.p0(i64 4, ptr %9) #11
  call void @llvm.lifetime.start.p0(i64 4, ptr %10) #11
  store i32 0, ptr %10, align 4, !tbaa !8
  call void (...) @Extra_UtilGetoptReset()
  br label %12

12:                                               ; preds = %23, %3
  %13 = load i32, ptr %6, align 4, !tbaa !8
  %14 = load ptr, ptr %7, align 8, !tbaa !10
  %15 = call i32 @Extra_UtilGetopt(i32 noundef %13, ptr noundef %14, ptr noundef @.str.346)
  store i32 %15, ptr %9, align 4, !tbaa !8
  %16 = icmp ne i32 %15, -1
  br i1 %16, label %17, label %24

17:                                               ; preds = %12
  %18 = load i32, ptr %9, align 4, !tbaa !8
  switch i32 %18, label %22 [
    i32 78, label %19
  ]

19:                                               ; preds = %17
  %20 = load i32, ptr %10, align 4, !tbaa !8
  %21 = xor i32 %20, 1
  store i32 %21, ptr %10, align 4, !tbaa !8
  br label %23

22:                                               ; preds = %17
  br label %61

23:                                               ; preds = %19
  br label %12, !llvm.loop !89

24:                                               ; preds = %12
  %25 = load ptr, ptr %5, align 8, !tbaa !3
  %26 = getelementptr inbounds nuw %struct.Abc_Frame_t_, ptr %25, i32 0, i32 6
  %27 = load ptr, ptr %26, align 8, !tbaa !44
  %28 = icmp eq ptr %27, null
  br i1 %28, label %29, label %34

29:                                               ; preds = %24
  %30 = load ptr, ptr %5, align 8, !tbaa !3
  %31 = getelementptr inbounds nuw %struct.Abc_Frame_t_, ptr %30, i32 0, i32 20
  %32 = load ptr, ptr %31, align 8, !tbaa !45
  %33 = call i32 (ptr, ptr, ...) @fprintf(ptr noundef %32, ptr noundef @.str.142) #11
  store i32 0, ptr %4, align 4
  store i32 1, ptr %11, align 4
  br label %86

34:                                               ; preds = %24
  %35 = load i32, ptr %6, align 4, !tbaa !8
  %36 = load i32, ptr @globalUtilOptind, align 4, !tbaa !8
  %37 = add nsw i32 %36, 1
  %38 = icmp ne i32 %35, %37
  br i1 %38, label %39, label %40

39:                                               ; preds = %34
  br label %61

40:                                               ; preds = %34
  %41 = load ptr, ptr %7, align 8, !tbaa !10
  %42 = load i32, ptr @globalUtilOptind, align 4, !tbaa !8
  %43 = sext i32 %42 to i64
  %44 = getelementptr inbounds ptr, ptr %41, i64 %43
  %45 = load ptr, ptr %44, align 8, !tbaa !14
  store ptr %45, ptr %8, align 8, !tbaa !14
  %46 = load i32, ptr %10, align 4, !tbaa !8
  %47 = icmp ne i32 %46, 0
  br i1 %47, label %48, label %54

48:                                               ; preds = %40
  %49 = load ptr, ptr %5, align 8, !tbaa !3
  %50 = getelementptr inbounds nuw %struct.Abc_Frame_t_, ptr %49, i32 0, i32 6
  %51 = load ptr, ptr %50, align 8, !tbaa !44
  %52 = load ptr, ptr %8, align 8, !tbaa !14
  %53 = load i32, ptr %10, align 4, !tbaa !8
  call void @Io_WriteEdgelist(ptr noundef %51, ptr noundef %52, i32 noundef 1, i32 noundef 0, i32 noundef 0, i32 noundef %53)
  br label %60

54:                                               ; preds = %40
  %55 = load ptr, ptr %5, align 8, !tbaa !3
  %56 = getelementptr inbounds nuw %struct.Abc_Frame_t_, ptr %55, i32 0, i32 6
  %57 = load ptr, ptr %56, align 8, !tbaa !44
  %58 = load ptr, ptr %8, align 8, !tbaa !14
  %59 = load i32, ptr %10, align 4, !tbaa !8
  call void @Io_WriteEdgelist(ptr noundef %57, ptr noundef %58, i32 noundef 1, i32 noundef 0, i32 noundef 0, i32 noundef %59)
  br label %60

60:                                               ; preds = %54, %48
  store i32 0, ptr %4, align 4
  store i32 1, ptr %11, align 4
  br label %86

61:                                               ; preds = %39, %22
  %62 = load ptr, ptr %5, align 8, !tbaa !3
  %63 = getelementptr inbounds nuw %struct.Abc_Frame_t_, ptr %62, i32 0, i32 21
  %64 = load ptr, ptr %63, align 8, !tbaa !24
  %65 = call i32 (ptr, ptr, ...) @fprintf(ptr noundef %64, ptr noundef @.str.347) #11
  %66 = load ptr, ptr %5, align 8, !tbaa !3
  %67 = getelementptr inbounds nuw %struct.Abc_Frame_t_, ptr %66, i32 0, i32 21
  %68 = load ptr, ptr %67, align 8, !tbaa !24
  %69 = call i32 (ptr, ptr, ...) @fprintf(ptr noundef %68, ptr noundef @.str.348) #11
  %70 = load ptr, ptr %5, align 8, !tbaa !3
  %71 = getelementptr inbounds nuw %struct.Abc_Frame_t_, ptr %70, i32 0, i32 21
  %72 = load ptr, ptr %71, align 8, !tbaa !24
  %73 = call i32 (ptr, ptr, ...) @fprintf(ptr noundef %72, ptr noundef @.str.349) #11
  %74 = load ptr, ptr %5, align 8, !tbaa !3
  %75 = getelementptr inbounds nuw %struct.Abc_Frame_t_, ptr %74, i32 0, i32 21
  %76 = load ptr, ptr %75, align 8, !tbaa !24
  %77 = call i32 (ptr, ptr, ...) @fprintf(ptr noundef %76, ptr noundef @.str.350) #11
  %78 = load ptr, ptr %5, align 8, !tbaa !3
  %79 = getelementptr inbounds nuw %struct.Abc_Frame_t_, ptr %78, i32 0, i32 21
  %80 = load ptr, ptr %79, align 8, !tbaa !24
  %81 = call i32 (ptr, ptr, ...) @fprintf(ptr noundef %80, ptr noundef @.str.233) #11
  %82 = load ptr, ptr %5, align 8, !tbaa !3
  %83 = getelementptr inbounds nuw %struct.Abc_Frame_t_, ptr %82, i32 0, i32 21
  %84 = load ptr, ptr %83, align 8, !tbaa !24
  %85 = call i32 (ptr, ptr, ...) @fprintf(ptr noundef %84, ptr noundef @.str.351) #11
  store i32 1, ptr %4, align 4
  store i32 1, ptr %11, align 4
  br label %86

86:                                               ; preds = %61, %60, %29
  call void @llvm.lifetime.end.p0(i64 4, ptr %10) #11
  call void @llvm.lifetime.end.p0(i64 4, ptr %9) #11
  call void @llvm.lifetime.end.p0(i64 8, ptr %8) #11
  %87 = load i32, ptr %4, align 4
  ret i32 %87
}