; Function Attrs: nounwind uwtable
define internal range(i32 0, 2) i32 @IoCommandWriteEdgelist(ptr noundef readonly captures(none) %0, i32 noundef %1, ptr noundef %2) #0 {
  tail call void (...) @Extra_UtilGetoptReset() #18
  br label %4

4:                                                ; preds = %6, %3
  %.0 = phi i32 [ 0, %3 ], [ %7, %6 ]
  %5 = tail call i32 @Extra_UtilGetopt(i32 noundef %1, ptr noundef %2, ptr noundef nonnull @.str.346) #18
  switch i32 %5, label %.loopexit [
    i32 -1, label %8
    i32 78, label %6
  ]

6:                                                ; preds = %4
  %7 = xor i32 %.0, 1
  br label %4, !llvm.loop !98

8:                                                ; preds = %4
  %9 = getelementptr inbounds nuw i8, ptr %0, i64 48
  %10 = load ptr, ptr %9, align 8, !tbaa !49
  %11 = icmp eq ptr %10, null
  br i1 %11, label %12, label %16

12:                                               ; preds = %8
  %13 = getelementptr inbounds nuw i8, ptr %0, i64 128
  %14 = load ptr, ptr %13, align 8, !tbaa !50
  %15 = tail call i64 @fwrite(ptr nonnull @.str.142, i64 15, i64 1, ptr %14)
  br label %38

16:                                               ; preds = %8
  %17 = load i32, ptr @globalUtilOptind, align 4, !tbaa !3
  %18 = add nsw i32 %17, 1
  %.not24 = icmp eq i32 %1, %18
  br i1 %.not24, label %19, label %.loopexit

19:                                               ; preds = %16
  %20 = sext i32 %17 to i64
  %21 = getelementptr inbounds ptr, ptr %2, i64 %20
  %22 = load ptr, ptr %21, align 8, !tbaa !9
  %.not25 = icmp eq i32 %.0, 0
  br i1 %.not25, label %24, label %23

23:                                               ; preds = %19
  tail call void @Io_WriteEdgelist(ptr noundef nonnull %10, ptr noundef %22, i32 noundef 1, i32 noundef 0, i32 noundef 0, i32 noundef 1) #18
  br label %38

24:                                               ; preds = %19
  tail call void @Io_WriteEdgelist(ptr noundef nonnull %10, ptr noundef %22, i32 noundef 1, i32 noundef 0, i32 noundef 0, i32 noundef 0) #18
  br label %38

.loopexit:                                        ; preds = %4, %16
  %25 = getelementptr inbounds nuw i8, ptr %0, i64 136
  %26 = load ptr, ptr %25, align 8, !tbaa !34
  %27 = tail call i64 @fwrite(ptr nonnull @.str.347, i64 34, i64 1, ptr %26)
  %28 = load ptr, ptr %25, align 8, !tbaa !34
  %29 = tail call i64 @fwrite(ptr nonnull @.str.348, i64 48, i64 1, ptr %28)
  %30 = load ptr, ptr %25, align 8, !tbaa !34
  %31 = tail call i64 @fwrite(ptr nonnull @.str.349, i64 108, i64 1, ptr %30)
  %32 = load ptr, ptr %25, align 8, !tbaa !34
  %33 = tail call i64 @fwrite(ptr nonnull @.str.350, i64 84, i64 1, ptr %32)
  %34 = load ptr, ptr %25, align 8, !tbaa !34
  %35 = tail call i64 @fwrite(ptr nonnull @.str.233, i64 33, i64 1, ptr %34)
  %36 = load ptr, ptr %25, align 8, !tbaa !34
  %37 = tail call i64 @fwrite(ptr nonnull @.str.351, i64 56, i64 1, ptr %36)
  br label %38

38:                                               ; preds = %23, %24, %.loopexit, %12
  %.021 = phi i32 [ 1, %.loopexit ], [ 0, %12 ], [ 0, %24 ], [ 0, %23 ]
  ret i32 %.021
}